target datalayout = "e-m:e-p270:32:32-p271:32:32-p272:64:64-i64:64-i128:128-f80:128-n8:16:32:64-S128"
target triple = "x86_64-pc-linux-gnu"

%"class.sat::literal" = type { i32 }
%class.symbol = type { ptr }
%"class.std::__cxx11::basic_string" = type { %"struct.std::__cxx11::basic_string<char>::_Alloc_hider", i64, %union.anon }
%"struct.std::__cxx11::basic_string<char>::_Alloc_hider" = type { ptr }
%union.anon = type { i64, [8 x i8] }
%"class.euf::solver" = type { %"class.sat::extension", %"class.euf::th_internalizer", %"class.euf::th_decompile", %"struct.sat::clause_eh", %"class.std::function", %"class.std::function.1", ptr, ptr, %"class.euf::relevancy", %struct.smt_params, %"class.euf::egraph", %class.trail_stack, %"struct.euf::solver::stats", %class.th_rewriter, %class.ref_vector.26, ptr, ptr, ptr, %class.scoped_ptr, ptr, ptr, ptr, i32, %"class.std::__cxx11::basic_string", %class.ptr_vector.24, %class.ptr_vector.24, %class.ptr_vector.53, %class.svector.55, %class.svector.57, %class.svector.59, i32, %class.svector.5, %class.svector.61, %class.scoped_ptr_vector.63, %class.ptr_vector.64, ptr, ptr, i8, %class.ast_pp_util, i8, [7 x i8], %"class.euf::smt_proof_checker", %class.svector.59, %class.svector.147, %class.svector.147, %class.svector.147, i32, i32, i32, i32, i32, i32, i32, i32, %class.symbol, %class.symbol, %class.ref_vector, %class.ref_vector, %class.vector.119, %class.vector.149, %class.vector.150, %class.ref_vector, %class.obj_map, %class.ref, %class.scoped_ptr.153 }
%"class.sat::extension" = type { ptr, i8, i32, %class.symbol, ptr }
%"class.euf::th_internalizer" = type { ptr, %class.ptr_vector, %class.svector }
%class.ptr_vector = type { %class.vector }
%class.vector = type { ptr }
%class.svector = type { %class.vector.0 }
%class.vector.0 = type { ptr }
%"class.euf::th_decompile" = type { ptr }
%"struct.sat::clause_eh" = type { ptr }
%"class.std::function" = type { %"class.std::_Function_base", ptr }
%"class.std::_Function_base" = type { %"union.std::_Any_data", ptr }
%"union.std::_Any_data" = type { %"union.std::_Nocopy_types" }
%"union.std::_Nocopy_types" = type { { i64, i64 } }
%"class.std::function.1" = type { %"class.std::_Function_base", ptr }
%"class.euf::relevancy" = type { ptr, i8, %class.svector.3, %class.svector.5, i32, %class.svector.7, %"class.sat::clause_allocator", %class.ptr_vector.13, %class.svector.7, %class.vector.15, i32, %class.svector.16, %class.ptr_vector, %class.ptr_vector }
%class.svector.3 = type { %class.vector.4 }
%class.vector.4 = type { ptr }
%"class.sat::clause_allocator" = type { %class.sat_allocator, %class.id_gen }
%class.sat_allocator = type { ptr, i64, %class.ptr_vector.9, ptr, [65 x %class.ptr_vector.11] }
%class.ptr_vector.9 = type { %class.vector.10 }
%class.vector.10 = type { ptr }
%class.ptr_vector.11 = type { %class.vector.12 }
%class.vector.12 = type { ptr }
%class.id_gen = type { i32, %class.svector.5 }
%class.ptr_vector.13 = type { %class.vector.14 }
%class.vector.14 = type { ptr }
%class.svector.7 = type { %class.vector.8 }
%class.vector.8 = type { ptr }
%class.vector.15 = type { ptr }
%class.svector.16 = type { %class.vector.17 }
%class.vector.17 = type { ptr }
%struct.smt_params = type { %struct.preprocessor_params.base, %struct.dyn_ack_params, %struct.qi_params, %struct.theory_arith_params.base, i8, %struct.theory_array_params.base, %struct.theory_bv_params, [4 x i8], %struct.theory_str_params.base, %struct.theory_seq_params, %struct.theory_pb_params.base, %struct.theory_datatype_params, i8, i8, i8, i8, i8, i8, i32, i8, i32, double, double, i32, i32, i32, i32, i32, i8, i32, i32, i32, i32, i32, i32, i8, i32, i8, i8, i8, i8, i8, %class.symbol, i8, i8, i32, i32, i8, i8, i8, i8, i32, i8, i32, i32, double, i8, double, double, i32, i8, i32, i32, double, i32, i32, i32, i32, i32, double, i8, i8, i8, i8, %class.symbol, i8, i8, i8, i8, i8, i8, i32, i8, i8, i8, i8, i8, i8, i8, i8, i8, double, i8, %class.symbol }
%struct.preprocessor_params.base = type <{ %struct.pattern_inference_params.base, %struct.bit_blaster_params, i32, i32, i8, i8, i8, i8, i8, i8, i8, i8, i8, i8, i8, i8, i8, i8, i8, i8, i8, i8, i8 }>
%struct.pattern_inference_params.base = type <{ i8, [3 x i8], i32, i8, i8, [2 x i8], i32, i8, [3 x i8], i32, i32, i8, [3 x i8], i32, i8, i8 }>
%struct.bit_blaster_params = type { i8, i8 }
%struct.dyn_ack_params = type { i32, i8, double, i32, i32, double }
%struct.qi_params = type { %"class.std::__cxx11::basic_string", %"class.std::__cxx11::basic_string", double, double, i32, i32, i8, i32, i32, i8, i8, i32, i8, i8, i8, i8, i32, i32, i32, i8, i32, ptr }
%struct.theory_arith_params.base = type <{ i8, i8, [2 x i8], i32, i8, [3 x i8], i32, i8, [3 x i8], i32, i8, i8, [2 x i8], i32, i32, i8, i8, [2 x i8], i32, i32, i8, [3 x i8], i32, i32, i8, [3 x i8], double, double, i8, [3 x i8], i32, i8, i8, i8, i8, i8, [3 x i8], i32, i8, i8, [2 x i8], i32, i8, [3 x i8], i32, i8, i8, i8, i8, i8, i8, [2 x i8], i32, i8, i8, [2 x i8], i32, i8, [3 x i8], i32, i8, i8, i8 }>
%struct.theory_array_params.base = type <{ i8, i8, [2 x i8], i32, i8, i8, [2 x i8], i32, i8, i8, i8, i8, i32, i8 }>
%struct.theory_bv_params = type { i32, i8, i8, i8, i8, i32, i8, i8, i8, i8, i32 }
%struct.theory_str_params.base = type <{ i8, i8, i8, i8, i8, i8, i8, i8, double, i32, i32, i32, i32, i32, i8, i8 }>
%struct.theory_seq_params = type { i8, i8, i32, i32 }
%struct.theory_pb_params.base = type <{ i32, i8 }>
%struct.theory_datatype_params = type { i32 }
%"class.euf::egraph" = type { ptr, %class.svector.18, %"class.euf::etable", %class.region, %class.scoped_ptr_vector, %class.svector.22, %class.svector.5, %class.ptr_vector, ptr, ptr, i32, %class.tmp_app, %class.ptr_vector, %class.ref_vector, %class.ref_vector.26, %class.vector.31, %class.ptr_vector, i32, i8, ptr, ptr, %"class.euf::justification", i32, %class.svector.34, %class.svector.7, %class.ptr_vector, %"struct.euf::egraph::stats", i8, i8, i64, %"class.std::vector", %"class.std::function.39", %"class.std::function.41", %"class.std::function.43", %"class.std::function.45", %"class.std::function.48" }
%class.svector.18 = type { %class.vector.19 }
%class.vector.19 = type { ptr }
%"class.euf::etable" = type { ptr, i8, %class.ptr_vector.11, %class.map }
%class.map = type { %class.table2map }
%class.table2map = type { %class.core_hashtable }
%class.core_hashtable = type <{ ptr, i32, i32, i32, [4 x i8] }>
%class.region = type { ptr, ptr, ptr, ptr, ptr }
%class.scoped_ptr_vector = type { %class.ptr_vector.20 }
%class.ptr_vector.20 = type { %class.vector.21 }
%class.vector.21 = type { ptr }
%class.svector.22 = type { %class.vector.23 }
%class.vector.23 = type { ptr }
%class.tmp_app = type { i32, ptr }
%class.vector.31 = type { ptr }
%"class.euf::justification" = type { i32, %union.anon.32, %union.anon.33 }
%union.anon.32 = type { ptr }
%union.anon.33 = type { ptr }
%class.svector.34 = type { %class.vector.35 }
%class.vector.35 = type { ptr }
%"struct.euf::egraph::stats" = type { i32, i32, i32, i32, i32, i32 }
%"class.std::vector" = type { %"struct.std::_Vector_base" }
%"struct.std::_Vector_base" = type { %"struct.std::_Vector_base<std::function<void (euf::enode *, euf::enode *)>, std::allocator<std::function<void (euf::enode *, euf::enode *)>>>::_Vector_impl" }
%"struct.std::_Vector_base<std::function<void (euf::enode *, euf::enode *)>, std::allocator<std::function<void (euf::enode *, euf::enode *)>>>::_Vector_impl" = type { %"struct.std::_Vector_base<std::function<void (euf::enode *, euf::enode *)>, std::allocator<std::function<void (euf::enode *, euf::enode *)>>>::_Vector_impl_data" }
%"struct.std::_Vector_base<std::function<void (euf::enode *, euf::enode *)>, std::allocator<std::function<void (euf::enode *, euf::enode *)>>>::_Vector_impl_data" = type { ptr, ptr, ptr }
%"class.std::function.39" = type { %"class.std::_Function_base", ptr }
%"class.std::function.41" = type { %"class.std::_Function_base", ptr }
%"class.std::function.43" = type { %"class.std::_Function_base", ptr }
%"class.std::function.45" = type { %"class.std::_Function_base", ptr }
%"class.std::function.48" = type { %"class.std::_Function_base", ptr }
%class.trail_stack = type { %class.ptr_vector.51, %class.svector.5, %class.region }
%class.ptr_vector.51 = type { %class.vector.52 }
%class.vector.52 = type { ptr }
%"struct.euf::solver::stats" = type { i32, i32 }
%class.th_rewriter = type { ptr, %class.params_ref }
%class.params_ref = type { ptr }
%class.ref_vector.26 = type { %class.ref_vector_core.27 }
%class.ref_vector_core.27 = type { %class.ref_manager_wrapper.28, %class.ptr_vector.29 }
%class.ref_manager_wrapper.28 = type { ptr }
%class.ptr_vector.29 = type { %class.vector.30 }
%class.vector.30 = type { ptr }
%class.scoped_ptr = type { ptr }
%class.ptr_vector.24 = type { %class.vector.25 }
%class.vector.25 = type { ptr }
%class.ptr_vector.53 = type { %class.vector.54 }
%class.vector.54 = type { ptr }
%class.svector.55 = type { %class.vector.56 }
%class.vector.56 = type { ptr }
%class.svector.57 = type { %class.vector.58 }
%class.vector.58 = type { ptr }
%class.svector.5 = type { %class.vector.6 }
%class.vector.6 = type { ptr }
%class.svector.61 = type { %class.vector.62 }
%class.vector.62 = type { ptr }
%class.scoped_ptr_vector.63 = type { %class.ptr_vector.64 }
%class.ptr_vector.64 = type { %class.vector.65 }
%class.vector.65 = type { ptr }
%class.ast_pp_util = type { ptr, %class.obj_hashtable, %class.smt2_pp_environment_dbg, %class.stacked_value, %class.stacked_value, %class.stacked_value, %class.obj_mark, %class.ref_vector, %class.svector.5, %class.decl_collector }
%class.obj_hashtable = type { %class.core_hashtable.base.67, [4 x i8] }
%class.core_hashtable.base.67 = type <{ ptr, i32, i32, i32 }>
%class.smt2_pp_environment_dbg = type { %class.smt2_pp_environment, ptr, %class.arith_util, %class.bv_util, %class.array_util, %class.fpa_util, %class.seq_util, %"class.datatype::util", %"class.datalog::dl_decl_util" }
%class.smt2_pp_environment = type { ptr, %class.smt_renaming }
%class.smt_renaming = type { %class.map.68, %class.map.72 }
%class.map.68 = type { %class.table2map.69 }
%class.table2map.69 = type { %class.core_hashtable.70 }
%class.core_hashtable.70 = type <{ ptr, i32, i32, i32, [4 x i8] }>
%class.map.72 = type { %class.table2map.73 }
%class.table2map.73 = type { %class.core_hashtable.74 }
%class.core_hashtable.74 = type <{ ptr, i32, i32, i32, [4 x i8] }>
%class.arith_util = type { ptr, ptr }
%class.bv_util = type { %class.bv_recognizers, ptr, ptr }
%class.bv_recognizers = type { i32 }
%class.array_util = type { %class.array_recognizers, ptr }
%class.array_recognizers = type { i32 }
%class.fpa_util = type { ptr, ptr, i32, %class.arith_util, %class.bv_util }
%class.seq_util = type { ptr, ptr, ptr, i32, [4 x i8], %"class.seq_util::str", %"class.seq_util::rex" }
%"class.seq_util::str" = type <{ ptr, ptr, i32, [4 x i8] }>
%"class.seq_util::rex" = type { ptr, ptr, i32, %class.vector.76, %class.ref_vector, %"struct.seq_util::rex::info", %"struct.seq_util::rex::info" }
%class.vector.76 = type { ptr }
%"struct.seq_util::rex::info" = type { i32, i8, i32, i32 }
%"class.datatype::util" = type { ptr, i32, ptr }
%"class.datalog::dl_decl_util" = type <{ ptr, %class.scoped_ptr.77, %class.scoped_ptr.78, i32, [4 x i8] }>
%class.scoped_ptr.77 = type { ptr }
%class.scoped_ptr.78 = type { ptr }
%class.stacked_value = type { i32, %class.vector.79 }
%class.vector.79 = type { ptr }
%class.obj_mark = type { [8 x i8], %class.bit_vector }
%class.bit_vector = type { i32, i32, ptr }
%class.decl_collector = type { ptr, %class.lim_svector, %class.lim_svector.82, %class.lim_svector.82, %class.ast_mark, %class.ref_vector.85, %class.svector.5, i32, i32, %"class.datatype::util", %class.array_util, i32, %class.ptr_vector.88 }
%class.lim_svector = type { %class.svector.80, %class.svector.5 }
%class.svector.80 = type { %class.vector.81 }
%class.vector.81 = type { ptr }
%class.lim_svector.82 = type { %class.svector.83, %class.svector.5 }
%class.svector.83 = type { %class.vector.30 }
%class.ast_mark = type { ptr, %class.obj_mark, %class.obj_mark.84 }
%class.obj_mark.84 = type { [8 x i8], %class.bit_vector }
%class.ref_vector.85 = type { %class.ref_vector_core.86 }
%class.ref_vector_core.86 = type { %class.ref_manager_wrapper.87, %class.ptr_vector.88 }
%class.ref_manager_wrapper.87 = type { ptr }
%class.ptr_vector.88 = type { %class.vector.89 }
%class.vector.89 = type { ptr }
%"class.euf::smt_proof_checker" = type <{ ptr, %class.params_ref, %"class.euf::theory_checker", %class.scoped_ptr.97, %class.symbol, %"class.sat::solver", %"class.sat::drat", %class.svector.59, %class.svector.59, i8, [7 x i8], %class.map.143, %class.map.143, i32, [4 x i8] }>
%"class.euf::theory_checker" = type { ptr, %class.scoped_ptr_vector.90, %class.map.93 }
%class.scoped_ptr_vector.90 = type { %class.ptr_vector.91 }
%class.ptr_vector.91 = type { %class.vector.92 }
%class.vector.92 = type { ptr }
%class.map.93 = type { %class.table2map.94 }
%class.table2map.94 = type { %class.core_hashtable.95 }
%class.core_hashtable.95 = type <{ ptr, i32, i32, i32, [4 x i8] }>
%class.scoped_ptr.97 = type { ptr }
%"class.sat::solver" = type { %"class.sat::solver_core", i8, [7 x i8], %"struct.sat::config", %"struct.sat::stats", %class.scoped_ptr.98, %class.scoped_ptr.99, ptr, %"class.sat::drat", [2 x %"class.sat::clause_allocator"], i8, %class.random_gen, %"class.sat::cleaner", %class.svector.106, %"class.sat::model_converter", i8, %"class.sat::simplifier", %"class.sat::scc", %"class.sat::asymm_branch", %"class.sat::probing", i8, [7 x i8], %"class.sat::mus", i8, i8, [6 x i8], %"class.sat::justification", %"class.sat::literal", %class.ptr_vector.13, %class.ptr_vector.13, i32, %class.svector.5, %class.svector.5, %class.svector.5, %class.svector.5, %class.vector.127, %class.svector.106, %class.svector.128, %class.svector.7, %class.svector.7, %class.svector.7, %class.svector.7, %class.svector.7, %class.svector.5, %class.svector.5, i32, %class.svector.59, %class.svector.5, i32, %class.svector.130, %class.svector.130, %class.svector.130, %class.svector.130, %class.svector.130, i32, double, %class.svector.7, %class.svector.7, %class.svector.7, i8, %class.svector.115, i32, i32, i32, i32, i32, i32, %"struct.sat::backoff", i32, i32, %"struct.sat::backoff", %"struct.sat::backoff", %class.var_queue, i32, i32, i32, %class.ema, %class.ema, %class.ema, %class.ema, %class.ema, %class.svector.59, %class.svector.117, %"class.std::__cxx11::basic_string", i8, i8, %class.visit_helper, %class.svector.132, %class.scoped_limit_trail, %class.stopwatch, %class.params_ref, %"struct.sat::no_drat_params", %class.scoped_ptr.134, %class.svector.59, %"class.sat::literal_set", %"class.sat::literal_set", %class.svector.59, i32, i32, i32, i32, i8, ptr, ptr, %class.statistics, i32, i32, i32, i32, i8, i32, i32, i32, i32, i32, i32, i32, double, i32, double, i8, i8, %class.svector.59, i8, %class.svector.130, i32, i32, i32, %class.svector.59, %class.svector.59, %class.svector.115, %class.svector.5, %class.approx_set_tpl, %class.svector.59, %class.svector.59, %class.vector.15, %class.svector.59, %class.svector.125, %class.u_map, %class.svector.59 }
%"class.sat::solver_core" = type { ptr, ptr }
%"struct.sat::config" = type <{ i64, i32, i32, i32, i8, [3 x i8], i32, i32, double, i32, i8, [3 x i8], i32, i8, [3 x i8], i32, [4 x i8], double, double, i32, i32, double, double, i32, [4 x i8], %class.symbol, double, i32, i32, i8, [3 x i8], i32, i32, i8, [3 x i8], i32, i8, [3 x i8], i32, i8, [3 x i8], i32, i8, i8, [2 x i8], i32, i8, i8, i8, i8, i8, i8, i8, i8, i32, i8, i8, i8, i8, i32, double, i32, [4 x i8], double, double, double, double, i32, i8, i8, [2 x i8], double, i8, i8, [2 x i8], i32, double, i32, i32, i32, i32, i32, i32, i32, i32, i8, i8, i8, i8, i32, i32, i8, i8, i8, i8, i8, i8, i8, [5 x i8], %class.symbol, i8, i8, i8, i8, i8, i8, [2 x i8], i32, i32, i32, i8, [3 x i8], double, double, double, double, double, i8, [7 x i8] }>
%"struct.sat::stats" = type { i32, i32, i32, i32, i32, i32, i32, i32, i32, i32, i32, i32, i32, i32, i32, i32, i32, i32, i32, i32, i32 }
%class.scoped_ptr.98 = type { ptr }
%class.scoped_ptr.99 = type { ptr }
%class.random_gen = type { i32 }
%"class.sat::cleaner" = type { ptr, i32, i32, i32, i32 }
%"class.sat::model_converter" = type { %class.vector.108, i32, %class.svector.7, ptr, %class.svector.109 }
%class.vector.108 = type { ptr }
%class.svector.109 = type { %class.vector.110 }
%class.vector.110 = type { ptr }
%"class.sat::simplifier" = type { ptr, i32, %"class.sat::use_list", %"class.sat::ext_use_list", %"class.sat::clause_set", %class.svector.113, i32, %class.tracked_uint_set, i8, %"class.sat::tmp_clause", %class.svector.115, i32, i32, i8, i8, i8, i8, i32, i8, i8, i32, i8, i32, i8, i8, i32, i32, i32, i32, i32, i32, i32, i32, i32, i32, i8, i32, i8, i8, i32, i32, i32, i32, i32, i32, i32, i32, i32, i32, i32, i8, i32, %class.ptr_vector.13, %class.svector.59, %class.svector.117, %class.svector.117, %class.svector.59 }
%"class.sat::use_list" = type { %class.vector.111 }
%class.vector.111 = type { ptr }
%"class.sat::ext_use_list" = type { %class.vector.112 }
%class.vector.112 = type { ptr }
%"class.sat::clause_set" = type { %class.svector.5, %class.ptr_vector.13 }
%class.svector.113 = type { %class.vector.114 }
%class.vector.114 = type { ptr }
%class.tracked_uint_set = type { %class.svector.115, %class.svector.5 }
%"class.sat::tmp_clause" = type { ptr }
%"class.sat::scc" = type { ptr, i8, i8, i32, i32, %"class.sat::big" }
%"class.sat::big" = type { ptr, i32, %class.vector.119, %class.svector.7, %class.svector.120, %class.svector.120, %class.svector.59, %class.svector.59, i8, i8, %class.vector.119 }
%class.svector.120 = type { %class.vector.121 }
%class.vector.121 = type { ptr }
%"class.sat::asymm_branch" = type { ptr, %class.params_ref, i64, %class.random_gen, i32, i32, i8, i32, i32, i8, i8, i64, i32, i32, i32, %class.svector.59, %class.svector.59, %class.svector.122, %class.svector.122, %class.svector.59, %class.svector.59 }
%class.svector.122 = type { %class.vector.123 }
%class.vector.123 = type { ptr }
%"class.sat::probing" = type { ptr, i32, %"class.sat::literal_set", %class.svector.59, i32, i8, i32, i8, i8, i64, i32, %class.vector.124, %class.svector.125, %"class.sat::big" }
%class.vector.124 = type { ptr }
%"class.sat::mus" = type <{ ptr, %class.svector.59, %class.svector.59, i8, [7 x i8], %class.svector.106, i32, [4 x i8] }>
%"class.sat::justification" = type <{ i32, [4 x i8], i64, i32, [4 x i8] }>
%class.vector.127 = type { ptr }
%class.svector.106 = type { %class.vector.107 }
%class.vector.107 = type { ptr }
%class.svector.128 = type { %class.vector.129 }
%class.vector.129 = type { ptr }
%"struct.sat::backoff" = type { i32, i32, i32, i32, i32 }
%class.var_queue = type { %class.heap }
%class.heap = type { %"struct.var_queue<svector<unsigned int>>::lt", %class.svector.120, %class.svector.120 }
%"struct.var_queue<svector<unsigned int>>::lt" = type { ptr }
%class.ema = type { double, double, double, i32, i32 }
%class.svector.117 = type { %class.vector.118 }
%class.vector.118 = type { ptr }
%class.visit_helper = type { %class.svector.5, i32, i32 }
%class.svector.132 = type { %class.vector.133 }
%class.vector.133 = type { ptr }
%class.scoped_limit_trail = type { %class.svector.5, i32, i32 }
%class.stopwatch = type <{ %"class.std::chrono::time_point", %"class.std::chrono::duration", i8, [7 x i8] }>
%"class.std::chrono::time_point" = type { %"class.std::chrono::duration" }
%"class.std::chrono::duration" = type { i64 }
%"struct.sat::no_drat_params" = type { %class.params_ref }
%class.scoped_ptr.134 = type { ptr }
%"class.sat::literal_set" = type { %class.tracked_uint_set }
%class.statistics = type { %class.svector.135, %class.svector.137 }
%class.svector.135 = type { %class.vector.136 }
%class.vector.136 = type { ptr }
%class.svector.137 = type { %class.vector.138 }
%class.vector.138 = type { ptr }
%class.svector.130 = type { %class.vector.131 }
%class.vector.131 = type { ptr }
%class.svector.115 = type { %class.vector.116 }
%class.vector.116 = type { ptr }
%class.approx_set_tpl = type { i32 }
%class.svector.125 = type { %class.vector.126 }
%class.vector.126 = type { ptr }
%class.u_map = type { %class.map.139 }
%class.map.139 = type { %class.table2map.140 }
%class.table2map.140 = type { %class.core_hashtable.141 }
%class.core_hashtable.141 = type <{ ptr, i32, i32, i32, [4 x i8] }>
%"class.sat::drat" = type { ptr, %class.svector.100, ptr, %"class.sat::clause_allocator", ptr, ptr, %class.svector.102, %class.svector.104, %class.vector.15, %class.svector.106, i8, i8, i8, i8, i8, %"struct.sat::drat::stats" }
%class.svector.100 = type { %class.vector.101 }
%class.vector.101 = type { ptr }
%class.svector.102 = type { %class.vector.103 }
%class.vector.103 = type { ptr }
%class.svector.104 = type { %class.vector.105 }
%class.vector.105 = type { ptr }
%"struct.sat::drat::stats" = type { i32, i32, i32, i32 }
%class.map.143 = type { %class.table2map.144 }
%class.table2map.144 = type { %class.core_hashtable.145 }
%class.core_hashtable.145 = type <{ ptr, i32, i32, i32, [4 x i8] }>
%class.svector.59 = type { %class.vector.60 }
%class.vector.60 = type { ptr }
%class.svector.147 = type { %class.vector.148 }
%class.vector.148 = type { ptr }
%class.vector.119 = type { ptr }
%class.vector.149 = type { ptr }
%class.vector.150 = type { ptr }
%class.ref_vector = type { %class.ref_vector_core }
%class.ref_vector_core = type { %class.ref_manager_wrapper, %class.ptr_vector.24 }
%class.ref_manager_wrapper = type { ptr }
%class.obj_map = type { %class.core_hashtable.151 }
%class.core_hashtable.151 = type <{ ptr, i32, i32, i32, [4 x i8] }>
%class.ref = type { ptr }
%class.scoped_ptr.153 = type { ptr }

; Function Attrs: mustprogress uwtable
define hidden void @_ZN3euf6solver10visit_exprERSoP4expr(ptr noundef nonnull align 8 dereferenceable(8456) %0, ptr noundef nonnull align 8 dereferenceable(8) %1, ptr noundef %2) #4 align 2 {
  %4 = alloca ptr, align 8
  %5 = alloca ptr, align 8
  %6 = alloca ptr, align 8
  store ptr %0, ptr %4, align 8, !tbaa !3
  store ptr %1, ptr %5, align 8, !tbaa !411
  store ptr %2, ptr %6, align 8, !tbaa !466
  %7 = load ptr, ptr %4, align 8
  %8 = getelementptr inbounds nuw %"class.euf::solver", ptr %7, i32 0, i32 38
  %9 = load ptr, ptr %6, align 8, !tbaa !466
  call void @_ZN11ast_pp_util7collectEP4expr(ptr noundef nonnull align 8 dereferenceable(704) %8, ptr noundef %9)
  %10 = getelementptr inbounds nuw %"class.euf::solver", ptr %7, i32 0, i32 39
  %11 = load i8, ptr %10, align 8, !tbaa !696, !range !385, !noundef !386
  %12 = trunc i8 %11 to i1
  br i1 %12, label %13, label %16

13:                                               ; preds = %3
  %14 = getelementptr inbounds nuw %"class.euf::solver", ptr %7, i32 0, i32 38
  %15 = load ptr, ptr %5, align 8, !tbaa !411
  call void @_ZN11ast_pp_util13display_declsERSo(ptr noundef nonnull align 8 dereferenceable(704) %14, ptr noundef nonnull align 8 dereferenceable(8) %15)
  br label %19

16:                                               ; preds = %3
  %17 = getelementptr inbounds nuw %"class.euf::solver", ptr %7, i32 0, i32 38
  %18 = load ptr, ptr %5, align 8, !tbaa !411
  call void @_ZN11ast_pp_util20display_skolem_declsERSo(ptr noundef nonnull align 8 dereferenceable(704) %17, ptr noundef nonnull align 8 dereferenceable(8) %18)
  br label %19

19:                                               ; preds = %16, %13
  %20 = getelementptr inbounds nuw %"class.euf::solver", ptr %7, i32 0, i32 38
  %21 = load ptr, ptr %5, align 8, !tbaa !411
  %22 = load ptr, ptr %6, align 8, !tbaa !466
  %23 = call noundef nonnull align 8 dereferenceable(8) ptr @_ZN11ast_pp_util11define_exprERSoP4expr(ptr noundef nonnull align 8 dereferenceable(704) %20, ptr noundef nonnull align 8 dereferenceable(8) %21, ptr noundef %22)
  ret void
}