; Function Attrs: mustprogress uwtable
define hidden void @_ZN3euf6solver10visit_exprERSoP4expr(ptr noundef nonnull align 8 dereferenceable(8456) %0, ptr noundef nonnull align 8 dereferenceable(8) %1, ptr noundef %2) local_unnamed_addr #3 align 2 {
  %4 = getelementptr inbounds nuw i8, ptr %0, i64 2472
  tail call void @_ZN11ast_pp_util7collectEP4expr(ptr noundef nonnull align 8 dereferenceable(704) %4, ptr noundef %2)
  %5 = getelementptr inbounds nuw i8, ptr %0, i64 3176
  %6 = load i8, ptr %5, align 8, !tbaa !638, !range !384, !noundef !385
  %7 = trunc nuw i8 %6 to i1
  br i1 %7, label %8, label %9

8:                                                ; preds = %3
  tail call void @_ZN11ast_pp_util13display_declsERSo(ptr noundef nonnull align 8 dereferenceable(704) %4, ptr noundef nonnull align 8 dereferenceable(8) %1)
  br label %10

9:                                                ; preds = %3
  tail call void @_ZN11ast_pp_util20display_skolem_declsERSo(ptr noundef nonnull align 8 dereferenceable(704) %4, ptr noundef nonnull align 8 dereferenceable(8) %1)
  br label %10

10:                                               ; preds = %9, %8
  %11 = tail call noundef nonnull align 8 dereferenceable(8) ptr @_ZN11ast_pp_util11define_exprERSoP4expr(ptr noundef nonnull align 8 dereferenceable(704) %4, ptr noundef nonnull align 8 dereferenceable(8) %1, ptr noundef %2)
  ret void
}